target datalayout = "e-m:e-p270:32:32-p271:32:32-p272:64:64-i64:64-i128:128-f80:128-n8:16:32:64-S128"
target triple = "x86_64-unknown-linux-gnu"

; Function Attrs: mustprogress uwtable
define hidden noundef zeroext i1 @_ZN11mpf_manager3lteERK3mpfS2_(ptr noundef nonnull align 8 dereferenceable(840) %this, ptr noundef nonnull align 8 dereferenceable(32) %x, ptr noundef nonnull align 8 dereferenceable(32) %y) #4 align 2 {
entry:
  %this.addr = alloca ptr, align 8
  %x.addr = alloca ptr, align 8
  %y.addr = alloca ptr, align 8
  store ptr %this, ptr %this.addr, align 8
  store ptr %x, ptr %x.addr, align 8
  store ptr %y, ptr %y.addr, align 8
  %this1 = load ptr, ptr %this.addr, align 8
  %0 = load ptr, ptr %x.addr, align 8
  %1 = load ptr, ptr %y.addr, align 8
  %call = call noundef zeroext i1 @_ZN11mpf_manager2ltERK3mpfS2_(ptr noundef nonnull align 8 dereferenceable(840) %this1, ptr noundef nonnull align 8 dereferenceable(32) %0, ptr noundef nonnull align 8 dereferenceable(32) %1)
  br i1 %call, label %lor.end, label %lor.rhs

lor.rhs:                                          ; preds = %entry
  %2 = load ptr, ptr %x.addr, align 8
  %3 = load ptr, ptr %y.addr, align 8
  %call2 = call noundef zeroext i1 @_ZN11mpf_manager2eqERK3mpfS2_(ptr noundef nonnull align 8 dereferenceable(840) %this1, ptr noundef nonnull align 8 dereferenceable(32) %2, ptr noundef nonnull align 8 dereferenceable(32) %3)
  br label %lor.end

lor.end:                                          ; preds = %lor.rhs, %entry
  %4 = phi i1 [ true, %entry ], [ %call2, %lor.rhs ]
  ret i1 %4
}