; Function Attrs: mustprogress uwtable
define hidden noundef zeroext i1 @_ZN11mpf_manager3lteERK3mpfS2_(ptr noundef nonnull align 8 dereferenceable(840) %this, ptr noundef nonnull align 8 dereferenceable(32) %x, ptr noundef nonnull align 8 dereferenceable(32) %y) local_unnamed_addr #5 align 2 {
entry:
  %call = tail call noundef zeroext i1 @_ZN11mpf_manager2ltERK3mpfS2_(ptr noundef nonnull align 8 dereferenceable(840) %this, ptr noundef nonnull align 8 dereferenceable(32) %x, ptr noundef nonnull align 8 dereferenceable(32) %y)
  br i1 %call, label %lor.end, label %lor.rhs

lor.rhs:                                          ; preds = %entry
  %call2 = tail call noundef zeroext i1 @_ZN11mpf_manager2eqERK3mpfS2_(ptr noundef nonnull align 8 dereferenceable(840) %this, ptr noundef nonnull align 8 dereferenceable(32) %x, ptr noundef nonnull align 8 dereferenceable(32) %y)
  br label %lor.end

lor.end:                                          ; preds = %lor.rhs, %entry
  %0 = phi i1 [ true, %entry ], [ %call2, %lor.rhs ]
  ret i1 %0
}